target datalayout = "e-m:e-p270:32:32-p271:32:32-p272:64:64-i64:64-i128:128-f80:128-n8:16:32:64-S128"
target triple = "x86_64-pc-linux-gnu"

%struct.strvec = type { ptr, i64, i64 }

@empty_strvec = dso_local global [1 x ptr] zeroinitializer, align 8
@.str.3 = private unnamed_addr constant [27 x i8] c"size_t overflow: %lu * %lu\00", align 1

; Function Attrs: inlinehint nounwind uwtable
define internal i64 @st_mult(i64 noundef %0, i64 noundef %1) #4 {
  %3 = alloca i64, align 8
  %4 = alloca i64, align 8
  store i64 %0, ptr %3, align 8, !tbaa !17
  store i64 %1, ptr %4, align 8, !tbaa !17
  %5 = load i64, ptr %3, align 8, !tbaa !17
  %6 = icmp ne i64 %5, 0
  br i1 %6, label %7, label %15

7:                                                ; preds = %2
  %8 = load i64, ptr %4, align 8, !tbaa !17
  %9 = load i64, ptr %3, align 8, !tbaa !17
  %10 = udiv i64 -1, %9
  %11 = icmp ugt i64 %8, %10
  br i1 %11, label %12, label %15

12:                                               ; preds = %7
  %13 = load i64, ptr %3, align 8, !tbaa !17
  %14 = load i64, ptr %4, align 8, !tbaa !17
  call void (ptr, ...) @die(ptr noundef @.str.3, i64 noundef %13, i64 noundef %14) #9
  unreachable

15:                                               ; preds = %7, %2
  %16 = load i64, ptr %3, align 8, !tbaa !17
  %17 = load i64, ptr %4, align 8, !tbaa !17
  %18 = mul i64 %16, %17
  ret i64 %18
}

; Function Attrs: nounwind uwtable
define dso_local void @strvec_push_nodup(ptr noundef %0, ptr noundef %1) #0 {
  %3 = alloca ptr, align 8
  %4 = alloca ptr, align 8
  store ptr %0, ptr %3, align 8, !tbaa !4
  store ptr %1, ptr %4, align 8, !tbaa !9
  %5 = load ptr, ptr %3, align 8, !tbaa !4
  %6 = getelementptr inbounds nuw %struct.strvec, ptr %5, i32 0, i32 0
  %7 = load ptr, ptr %6, align 8, !tbaa !11
  %8 = icmp eq ptr %7, @empty_strvec
  br i1 %8, label %9, label %12

9:                                                ; preds = %2
  %10 = load ptr, ptr %3, align 8, !tbaa !4
  %11 = getelementptr inbounds nuw %struct.strvec, ptr %10, i32 0, i32 0
  store ptr null, ptr %11, align 8, !tbaa !11
  br label %12

12:                                               ; preds = %9, %2
  br label %13

13:                                               ; preds = %12
  %14 = load ptr, ptr %3, align 8, !tbaa !4
  %15 = getelementptr inbounds nuw %struct.strvec, ptr %14, i32 0, i32 1
  %16 = load i64, ptr %15, align 8, !tbaa !15
  %17 = add i64 %16, 2
  %18 = load ptr, ptr %3, align 8, !tbaa !4
  %19 = getelementptr inbounds nuw %struct.strvec, ptr %18, i32 0, i32 2
  %20 = load i64, ptr %19, align 8, !tbaa !16
  %21 = icmp ugt i64 %17, %20
  br i1 %21, label %22, label %61

22:                                               ; preds = %13
  %23 = load ptr, ptr %3, align 8, !tbaa !4
  %24 = getelementptr inbounds nuw %struct.strvec, ptr %23, i32 0, i32 2
  %25 = load i64, ptr %24, align 8, !tbaa !16
  %26 = add i64 %25, 16
  %27 = mul i64 %26, 3
  %28 = udiv i64 %27, 2
  %29 = load ptr, ptr %3, align 8, !tbaa !4
  %30 = getelementptr inbounds nuw %struct.strvec, ptr %29, i32 0, i32 1
  %31 = load i64, ptr %30, align 8, !tbaa !15
  %32 = add i64 %31, 2
  %33 = icmp ult i64 %28, %32
  br i1 %33, label %34, label %41

34:                                               ; preds = %22
  %35 = load ptr, ptr %3, align 8, !tbaa !4
  %36 = getelementptr inbounds nuw %struct.strvec, ptr %35, i32 0, i32 1
  %37 = load i64, ptr %36, align 8, !tbaa !15
  %38 = add i64 %37, 2
  %39 = load ptr, ptr %3, align 8, !tbaa !4
  %40 = getelementptr inbounds nuw %struct.strvec, ptr %39, i32 0, i32 2
  store i64 %38, ptr %40, align 8, !tbaa !16
  br label %50

41:                                               ; preds = %22
  %42 = load ptr, ptr %3, align 8, !tbaa !4
  %43 = getelementptr inbounds nuw %struct.strvec, ptr %42, i32 0, i32 2
  %44 = load i64, ptr %43, align 8, !tbaa !16
  %45 = add i64 %44, 16
  %46 = mul i64 %45, 3
  %47 = udiv i64 %46, 2
  %48 = load ptr, ptr %3, align 8, !tbaa !4
  %49 = getelementptr inbounds nuw %struct.strvec, ptr %48, i32 0, i32 2
  store i64 %47, ptr %49, align 8, !tbaa !16
  br label %50

50:                                               ; preds = %41, %34
  %51 = load ptr, ptr %3, align 8, !tbaa !4
  %52 = getelementptr inbounds nuw %struct.strvec, ptr %51, i32 0, i32 0
  %53 = load ptr, ptr %52, align 8, !tbaa !11
  %54 = load ptr, ptr %3, align 8, !tbaa !4
  %55 = getelementptr inbounds nuw %struct.strvec, ptr %54, i32 0, i32 2
  %56 = load i64, ptr %55, align 8, !tbaa !16
  %57 = call i64 @st_mult(i64 noundef 8, i64 noundef %56)
  %58 = call ptr @xrealloc(ptr noundef %53, i64 noundef %57)
  %59 = load ptr, ptr %3, align 8, !tbaa !4
  %60 = getelementptr inbounds nuw %struct.strvec, ptr %59, i32 0, i32 0
  store ptr %58, ptr %60, align 8, !tbaa !11
  br label %61

61:                                               ; preds = %50, %13
  br label %62

62:                                               ; preds = %61
  %63 = load ptr, ptr %4, align 8, !tbaa !9
  %64 = load ptr, ptr %3, align 8, !tbaa !4
  %65 = getelementptr inbounds nuw %struct.strvec, ptr %64, i32 0, i32 0
  %66 = load ptr, ptr %65, align 8, !tbaa !11
  %67 = load ptr, ptr %3, align 8, !tbaa !4
  %68 = getelementptr inbounds nuw %struct.strvec, ptr %67, i32 0, i32 1
  %69 = load i64, ptr %68, align 8, !tbaa !15
  %70 = add i64 %69, 1
  store i64 %70, ptr %68, align 8, !tbaa !15
  %71 = getelementptr inbounds nuw ptr, ptr %66, i64 %69
  store ptr %63, ptr %71, align 8, !tbaa !9
  %72 = load ptr, ptr %3, align 8, !tbaa !4
  %73 = getelementptr inbounds nuw %struct.strvec, ptr %72, i32 0, i32 0
  %74 = load ptr, ptr %73, align 8, !tbaa !11
  %75 = load ptr, ptr %3, align 8, !tbaa !4
  %76 = getelementptr inbounds nuw %struct.strvec, ptr %75, i32 0, i32 1
  %77 = load i64, ptr %76, align 8, !tbaa !15
  %78 = getelementptr inbounds nuw ptr, ptr %74, i64 %77
  store ptr null, ptr %78, align 8, !tbaa !9
  ret void
}

; Function Attrs: nounwind uwtable
define dso_local ptr @strvec_push(ptr noundef %0, ptr noundef %1) #0 {
  %3 = alloca ptr, align 8
  %4 = alloca ptr, align 8
  store ptr %0, ptr %3, align 8, !tbaa !4
  store ptr %1, ptr %4, align 8, !tbaa !9
  %5 = load ptr, ptr %3, align 8, !tbaa !4
  %6 = load ptr, ptr %4, align 8, !tbaa !9
  %7 = call ptr @xstrdup(ptr noundef %6)
  call void @strvec_push_nodup(ptr noundef %5, ptr noundef %7)
  %8 = load ptr, ptr %3, align 8, !tbaa !4
  %9 = getelementptr inbounds nuw %struct.strvec, ptr %8, i32 0, i32 0
  %10 = load ptr, ptr %9, align 8, !tbaa !11
  %11 = load ptr, ptr %3, align 8, !tbaa !4
  %12 = getelementptr inbounds nuw %struct.strvec, ptr %11, i32 0, i32 1
  %13 = load i64, ptr %12, align 8, !tbaa !15
  %14 = sub i64 %13, 1
  %15 = getelementptr inbounds nuw ptr, ptr %10, i64 %14
  %16 = load ptr, ptr %15, align 8, !tbaa !9
  ret ptr %16
}