; Function Attrs: nounwind uwtable
define dso_local ptr @strvec_push(ptr noundef captures(none) %0, ptr noundef %1) local_unnamed_addr #3 {
  %3 = tail call ptr @xstrdup(ptr noundef %1) #11
  %4 = load ptr, ptr %0, align 8, !tbaa !4
  %5 = icmp eq ptr %4, @empty_strvec
  br i1 %5, label %6, label %7

6:                                                ; preds = %2
  store ptr null, ptr %0, align 8, !tbaa !4
  br label %7

7:                                                ; preds = %6, %2
  %8 = phi ptr [ %4, %2 ], [ null, %6 ]
  %9 = getelementptr inbounds nuw i8, ptr %0, i64 8
  %10 = load i64, ptr %9, align 8, !tbaa !11
  %11 = add i64 %10, 2
  %12 = getelementptr inbounds nuw i8, ptr %0, i64 16
  %13 = load i64, ptr %12, align 8, !tbaa !12
  %14 = icmp ugt i64 %11, %13
  br i1 %14, label %15, label %strvec_push_nodup.exit

15:                                               ; preds = %7
  %16 = mul i64 %13, 3
  %17 = add i64 %16, 48
  %18 = lshr i64 %17, 1
  %..i = tail call i64 @llvm.umax.i64(i64 %18, i64 %11)
  store i64 %..i, ptr %12, align 8, !tbaa !12
  %19 = icmp ugt i64 %..i, 2305843009213693951
  br i1 %19, label %20, label %st_mult.exit.i

20:                                               ; preds = %15
  tail call void (ptr, ...) @die(ptr noundef nonnull @.str.3, i64 noundef 8, i64 noundef %..i) #10
  unreachable

st_mult.exit.i:                                   ; preds = %15
  %21 = shl nuw i64 %..i, 3
  %22 = tail call ptr @xrealloc(ptr noundef %8, i64 noundef %21) #11
  store ptr %22, ptr %0, align 8, !tbaa !4
  %.pre.i = load i64, ptr %9, align 8, !tbaa !11
  br label %strvec_push_nodup.exit

strvec_push_nodup.exit:                           ; preds = %7, %st_mult.exit.i
  %23 = phi i64 [ %10, %7 ], [ %.pre.i, %st_mult.exit.i ]
  %24 = phi ptr [ %8, %7 ], [ %22, %st_mult.exit.i ]
  %25 = add i64 %23, 1
  store i64 %25, ptr %9, align 8, !tbaa !11
  %26 = getelementptr inbounds nuw ptr, ptr %24, i64 %23
  store ptr %3, ptr %26, align 8, !tbaa !13
  %27 = getelementptr ptr, ptr %24, i64 %25
  store ptr null, ptr %27, align 8, !tbaa !13
  ret ptr %3
}